Certificate:
    Data:
        Version: 3 (0x2)
        Serial Number:
            37:36:a9:e8:08:7e:53:98:e8:3e:82:c1:29:2d:e7:26
        Signature Algorithm: sha256WithRSAEncryption
        Issuer: CN=Easy-RSA CA
        Validity
            Not Before: Mar  4 14:18:25 2023 GMT
            Not After : Feb 16 14:18:25 2026 GMT
        Subject: CN=vpn-server
        Subject Public Key Info:
            Public Key Algorithm: rsaEncryption
                RSA Public-Key: (2048 bit)
                Modulus:
                    00:af:1e:01:5d:40:63:b1:2e:82:a7:b7:71:09:aa:
                    84:a4:2e:ca:7c:29:00:41:45:eb:8c:a0:9b:58:51:
                    8e:e5:1d:78:ce:92:aa:7a:f0:35:f0:89:20:bc:f4:
                    e1:89:50:f8:d5:8b:a0:e9:85:55:4e:b3:9f:f7:0f:
                    43:1a:3f:eb:6d:d6:e9:3f:66:5c:47:3d:da:1e:52:
                    f4:5c:07:05:5c:b8:bf:72:db:97:c0:36:fa:87:73:
                    a7:10:e9:b9:31:92:1a:2d:05:c4:4c:ec:ad:4d:4d:
                    a5:25:3f:e1:10:53:62:50:3b:df:3a:0c:aa:e2:1a:
                    ec:da:98:b4:13:3e:47:09:36:bc:69:13:83:12:a2:
                    e0:50:27:80:15:06:5d:07:be:24:f1:b9:02:ca:38:
                    fb:31:cf:2a:2d:ea:bf:5f:2b:74:f3:a0:78:15:69:
                    5d:3b:59:04:e8:15:74:04:09:ee:62:8e:5f:cb:cc:
                    f3:f7:b1:ea:de:01:c5:60:f5:88:9d:7b:38:a7:1e:
                    ae:62:5f:6d:76:95:cd:23:c4:6c:d3:66:09:cc:7d:
                    1e:9d:fe:f9:0c:00:49:ec:ab:49:c9:8e:5b:d3:8d:
                    04:fd:b8:a4:b2:3d:e1:35:ce:da:95:4a:54:dc:68:
                    4e:7f:23:27:1a:ff:ce:f7:52:7e:b3:90:d4:1b:af:
                    55:d1
                Exponent: 65537 (0x10001)
        X509v3 extensions:
            X509v3 Basic Constraints: 
                CA:FALSE
            X509v3 Subject Key Identifier: 
                58:18:57:B7:B2:4A:6D:3B:AD:B8:E3:9C:C7:AB:C3:E7:6F:E2:C2:2B
            X509v3 Authority Key Identifier: 
                keyid:E3:A2:05:D3:86:7E:79:FA:2D:42:5F:7E:FF:11:9B:68:44:28:EC:A3
                DirName:/CN=Easy-RSA CA
                serial:7F:25:7D:DC:32:60:E0:5A:36:2C:0D:4E:EB:EE:80:8D:1C:A0:99:66

            X509v3 Extended Key Usage: 
                TLS Web Server Authentication
            X509v3 Key Usage: 
                Digital Signature, Key Encipherment
            X509v3 Subject Alternative Name: 
                DNS:vpn-server
    Signature Algorithm: sha256WithRSAEncryption
         12:fe:61:61:3d:89:73:c1:d3:f7:b8:0b:60:c9:de:7c:d6:51:
         44:c2:0d:b7:33:43:02:e2:4c:6d:5f:98:f7:b3:0f:6f:f2:67:
         be:7b:59:1f:a7:a0:b0:68:66:d4:e6:7f:26:20:5e:97:37:4f:
         1c:37:da:53:4a:8c:c9:80:62:b6:8a:10:3a:a0:77:1b:fa:9f:
         5a:9d:a8:63:e0:9b:b3:13:2d:a1:fe:b4:ad:ae:72:19:76:95:
         76:7d:82:81:5f:d4:47:98:bc:b8:02:c2:a7:df:15:05:05:23:
         aa:8a:ea:98:be:6f:1c:1a:c4:53:34:64:fd:d1:84:1a:aa:52:
         09:ec:2a:03:a2:ea:e3:c1:57:27:dd:79:01:77:57:33:65:f6:
         05:0b:56:a1:f5:76:0a:c3:36:80:9b:98:bf:0d:b6:d7:28:f3:
         61:cd:71:e1:ae:b3:3f:be:cb:cb:68:0f:ae:3a:5a:20:96:76:
         16:c0:d9:60:e5:4e:fa:a1:b5:ba:d4:af:15:7f:b4:75:c2:14:
         4d:65:3b:fe:12:10:a3:af:01:9e:21:bd:b7:54:07:2d:c5:cf:
         c2:9b:00:ce:68:09:08:86:5d:e2:ef:e6:26:4a:fe:1c:15:ae:
         37:a7:d2:da:11:aa:f8:91:e2:62:89:27:1d:cf:09:87:05:6e:
         d2:1a:ad:a5
-----BEGIN CERTIFICATE-----
MIIDbzCCAlegAwIBAgIQNzap6Ah+U5joPoLBKS3nJjANBgkqhkiG9w0BAQsFADAW
MRQwEgYDVQQDDAtFYXN5LVJTQSBDQTAeFw0yMzAzMDQxNDE4MjVaFw0yNjAyMTYx
NDE4MjVaMBUxEzARBgNVBAMMCnZwbi1zZXJ2ZXIwggEiMA0GCSqGSIb3DQEBAQUA
A4IBDwAwggEKAoIBAQCvHgFdQGOxLoKnt3EJqoSkLsp8KQBBReuMoJtYUY7lHXjO
kqp68DXwiSC89OGJUPjVi6DphVVOs5/3D0MaP+tt1uk/ZlxHPdoeUvRcBwVcuL9y
25fANvqHc6cQ6bkxkhotBcRM7K1NTaUlP+EQU2JQO986DKriGuzamLQTPkcJNrxp
E4MSouBQJ4AVBl0HviTxuQLKOPsxzyot6r9fK3TzoHgVaV07WQToFXQECe5ijl/L
zPP3sereAcVg9YidezinHq5iX212lc0jxGzTZgnMfR6d/vkMAEnsq0nJjlvTjQT9
uKSyPeE1ztqVSlTcaE5/Iyca/873Un6zkNQbr1XRAgMBAAGjgbkwgbYwCQYDVR0T
BAIwADAdBgNVHQ4EFgQUWBhXt7JKbTutuOOcx6vD52/iwiswUQYDVR0jBEowSIAU
46IF04Z+efotQl9+/xGbaEQo7KOhGqQYMBYxFDASBgNVBAMMC0Vhc3ktUlNBIENB
ghR/JX3cMmDgWjYsDU7r7oCNHKCZZjATBgNVHSUEDDAKBggrBgEFBQcDATALBgNV
HQ8EBAMCBaAwFQYDVR0RBA4wDIIKdnBuLXNlcnZlcjANBgkqhkiG9w0BAQsFAAOC
AQEAEv5hYT2Jc8HT97gLYMnefNZRRMINtzNDAuJMbV+Y97MPb/JnvntZH6egsGhm
1OZ/JiBelzdPHDfaU0qMyYBitooQOqB3G/qfWp2oY+CbsxMtof60ra5yGXaVdn2C
gV/UR5i8uALCp98VBQUjqorqmL5vHBrEUzRk/dGEGqpSCewqA6Lq48FXJ915AXdX
M2X2BQtWofV2CsM2gJuYvw221yjzYc1x4a6zP77Ly2gPrjpaIJZ2FsDZYOVO+qG1
utSvFX+0dcIUTWU7/hIQo68BniG9t1QHLcXPwpsAzmgJCIZd4u/mJkr+HBWuN6fS
2hGq+JHiYoknHc8JhwVu0hqtpQ==
-----END CERTIFICATE-----
